target datalayout = "e-m:e-p270:32:32-p271:32:32-p272:64:64-i64:64-i128:128-f80:128-n8:16:32:64-S128"
target triple = "x86_64-pc-linux-gnu"

%struct.ps_files = type { ptr, ptr, i64, i64, i32, i32 }
%struct._zend_string = type { %struct._zend_refcounted_h, i64, i64, [1 x i8] }
%struct._zend_refcounted_h = type { i32, %union.anon }
%union.anon = type { i32 }

@.str.10 = private unnamed_addr constant [22 x i8] c"Write failed: %s (%d)\00", align 1
@.str.11 = private unnamed_addr constant [38 x i8] c"Write wrote less bytes than requested\00", align 1

; Function Attrs: nounwind uwtable
define internal i32 @ps_files_write(ptr noundef %0, ptr noundef %1, ptr noundef %2) #0 {
  %4 = alloca i32, align 4
  %5 = alloca ptr, align 8
  %6 = alloca ptr, align 8
  %7 = alloca ptr, align 8
  %8 = alloca i64, align 8
  %9 = alloca i32, align 4
  %10 = alloca i32, align 4
  store ptr %0, ptr %5, align 8, !tbaa !4
  store ptr %1, ptr %6, align 8, !tbaa !22
  store ptr %2, ptr %7, align 8, !tbaa !22
  call void @llvm.lifetime.start.p0(i64 8, ptr %8) #13
  store i64 0, ptr %8, align 8, !tbaa !12
  %11 = load ptr, ptr %5, align 8, !tbaa !4
  %12 = load ptr, ptr %6, align 8, !tbaa !22
  call void @ps_files_open(ptr noundef %11, ptr noundef %12)
  %13 = load ptr, ptr %5, align 8, !tbaa !4
  %14 = getelementptr inbounds nuw %struct.ps_files, ptr %13, i32 0, i32 5
  %15 = load i32, ptr %14, align 4, !tbaa !15
  %16 = icmp slt i32 %15, 0
  br i1 %16, label %17, label %18

17:                                               ; preds = %3
  store i32 -1, ptr %4, align 4
  store i32 1, ptr %9, align 4
  br label %59

18:                                               ; preds = %3
  %19 = load ptr, ptr %7, align 8, !tbaa !22
  %20 = getelementptr inbounds nuw %struct._zend_string, ptr %19, i32 0, i32 2
  %21 = load i64, ptr %20, align 8, !tbaa !29
  %22 = load ptr, ptr %5, align 8, !tbaa !4
  %23 = getelementptr inbounds nuw %struct.ps_files, ptr %22, i32 0, i32 3
  %24 = load i64, ptr %23, align 8, !tbaa !28
  %25 = icmp ult i64 %21, %24
  br i1 %25, label %26, label %31

26:                                               ; preds = %18
  call void @llvm.lifetime.start.p0(i64 4, ptr %10) #13
  %27 = load ptr, ptr %5, align 8, !tbaa !4
  %28 = getelementptr inbounds nuw %struct.ps_files, ptr %27, i32 0, i32 5
  %29 = load i32, ptr %28, align 4, !tbaa !15
  %30 = call i32 @ftruncate(i32 noundef %29, i64 noundef 0) #13
  store i32 %30, ptr %10, align 4, !tbaa !10
  call void @llvm.lifetime.end.p0(i64 4, ptr %10) #13
  br label %31

31:                                               ; preds = %26, %18
  %32 = load ptr, ptr %5, align 8, !tbaa !4
  %33 = getelementptr inbounds nuw %struct.ps_files, ptr %32, i32 0, i32 5
  %34 = load i32, ptr %33, align 4, !tbaa !15
  %35 = load ptr, ptr %7, align 8, !tbaa !22
  %36 = getelementptr inbounds nuw %struct._zend_string, ptr %35, i32 0, i32 3
  %37 = getelementptr inbounds [1 x i8], ptr %36, i64 0, i64 0
  %38 = load ptr, ptr %7, align 8, !tbaa !22
  %39 = getelementptr inbounds nuw %struct._zend_string, ptr %38, i32 0, i32 2
  %40 = load i64, ptr %39, align 8, !tbaa !29
  %41 = call i64 @pwrite(i32 noundef %34, ptr noundef %37, i64 noundef %40, i64 noundef 0)
  store i64 %41, ptr %8, align 8, !tbaa !12
  %42 = load i64, ptr %8, align 8, !tbaa !12
  %43 = load ptr, ptr %7, align 8, !tbaa !22
  %44 = getelementptr inbounds nuw %struct._zend_string, ptr %43, i32 0, i32 2
  %45 = load i64, ptr %44, align 8, !tbaa !29
  %46 = icmp ne i64 %42, %45
  br i1 %46, label %47, label %58

47:                                               ; preds = %31
  %48 = load i64, ptr %8, align 8, !tbaa !12
  %49 = icmp eq i64 %48, -1
  br i1 %49, label %50, label %56

50:                                               ; preds = %47
  %51 = call ptr @__errno_location() #15
  %52 = load i32, ptr %51, align 4, !tbaa !10
  %53 = call ptr @strerror(i32 noundef %52) #13
  %54 = call ptr @__errno_location() #15
  %55 = load i32, ptr %54, align 4, !tbaa !10
  call void (ptr, i32, ptr, ...) @php_error_docref(ptr noundef null, i32 noundef 2, ptr noundef @.str.10, ptr noundef %53, i32 noundef %55)
  br label %57

56:                                               ; preds = %47
  call void (ptr, i32, ptr, ...) @php_error_docref(ptr noundef null, i32 noundef 2, ptr noundef @.str.11)
  br label %57

57:                                               ; preds = %56, %50
  store i32 -1, ptr %4, align 4
  store i32 1, ptr %9, align 4
  br label %59

58:                                               ; preds = %31
  store i32 0, ptr %4, align 4
  store i32 1, ptr %9, align 4
  br label %59

59:                                               ; preds = %58, %57, %17
  call void @llvm.lifetime.end.p0(i64 8, ptr %8) #13
  %60 = load i32, ptr %4, align 4
  ret i32 %60
}