; Function Attrs: nounwind uwtable
define internal fastcc range(i32 -1, 1) i32 @ps_files_write(ptr noundef captures(none) %0, ptr noundef %1, ptr noundef readonly captures(none) %2) unnamed_addr #0 {
  tail call fastcc void @ps_files_open(ptr noundef %0, ptr noundef %1)
  %4 = getelementptr inbounds nuw i8, ptr %0, i64 36
  %5 = load i32, ptr %4, align 4, !tbaa !12
  %6 = icmp slt i32 %5, 0
  br i1 %6, label %29, label %7

7:                                                ; preds = %3
  %8 = getelementptr inbounds nuw i8, ptr %2, i64 16
  %9 = load i64, ptr %8, align 8, !tbaa !22
  %10 = getelementptr inbounds nuw i8, ptr %0, i64 24
  %11 = load i64, ptr %10, align 8, !tbaa !29
  %12 = icmp ult i64 %9, %11
  br i1 %12, label %13, label %15

13:                                               ; preds = %7
  %14 = tail call i32 @ftruncate(i32 noundef %5, i64 noundef 0) #15
  %.pre = load i32, ptr %4, align 4, !tbaa !12
  %.pre14 = load i64, ptr %8, align 8, !tbaa !22
  br label %15

15:                                               ; preds = %13, %7
  %16 = phi i64 [ %.pre14, %13 ], [ %9, %7 ]
  %17 = phi i32 [ %.pre, %13 ], [ %5, %7 ]
  %18 = getelementptr inbounds nuw i8, ptr %2, i64 24
  %19 = tail call i64 @pwrite(i32 noundef %17, ptr noundef nonnull %18, i64 noundef %16, i64 noundef 0) #15
  %20 = load i64, ptr %8, align 8, !tbaa !22
  %.not = icmp eq i64 %19, %20
  br i1 %.not, label %29, label %21

21:                                               ; preds = %15
  %22 = icmp eq i64 %19, -1
  br i1 %22, label %23, label %28

23:                                               ; preds = %21
  %24 = tail call ptr @__errno_location() #17
  %25 = load i32, ptr %24, align 4, !tbaa !10
  %26 = tail call ptr @strerror(i32 noundef %25) #15
  %27 = load i32, ptr %24, align 4, !tbaa !10
  tail call void (ptr, i32, ptr, ...) @php_error_docref(ptr noundef null, i32 noundef 2, ptr noundef nonnull @.str.10, ptr noundef %26, i32 noundef %27) #15
  br label %29

28:                                               ; preds = %21
  tail call void (ptr, i32, ptr, ...) @php_error_docref(ptr noundef null, i32 noundef 2, ptr noundef nonnull @.str.11) #15
  br label %29

29:                                               ; preds = %15, %23, %28, %3
  %.0 = phi i32 [ -1, %3 ], [ -1, %28 ], [ -1, %23 ], [ 0, %15 ]
  ret i32 %.0
}